Certificate:
    Data:
        Version: 3 (0x2)
        Serial Number: 2 (0x2)
        Signature Algorithm: sha256WithRSAEncryption
        Issuer: C=JP, ST=Chiba, L=Chiba, O=hkkim-openvpn, OU=pri-vpn, CN=maku-home/name=hkkim/emailAddress=mail@host.domain
        Validity
            Not Before: Jan 20 17:44:22 2021 GMT
            Not After : Jan 18 17:44:22 2031 GMT
        Subject: C=JP, ST=Chiba, L=Chiba, O=hkkim-openvpn, OU=pri-openvpn, CN=busan1/name=busan1/emailAddress=mail@host.domain
        Subject Public Key Info:
            Public Key Algorithm: rsaEncryption
                RSA Public-Key: (4096 bit)
                Modulus:
                    00:f2:ee:ce:a3:f0:05:ab:00:7d:e3:bf:a2:ae:f1:
                    1c:5a:e7:05:79:9e:a3:c7:ca:b9:5c:1a:05:fc:8d:
                    94:d1:22:fb:c4:e0:44:c2:fb:54:75:b3:9e:3e:50:
                    15:28:f8:97:66:0c:cb:3c:ca:22:d0:d8:af:4a:56:
                    58:69:92:2f:93:2b:25:b9:88:e9:19:f0:35:ba:69:
                    3a:cc:46:3c:23:7f:38:32:10:7f:27:34:b5:5c:b5:
                    27:d2:16:3c:4a:2c:7f:22:95:b2:bc:65:71:0e:c2:
                    6e:fc:03:d4:71:3d:b0:51:8c:89:70:d1:ca:54:e1:
                    5f:15:92:8e:ed:50:a9:9f:30:0a:92:29:0d:6b:35:
                    cd:dc:a2:2d:ea:b6:34:2d:bc:0b:ff:71:b0:15:b5:
                    e7:0e:d8:38:a8:57:08:62:b1:29:3f:74:58:e6:50:
                    c3:79:86:7f:bc:70:05:e9:6e:b9:ff:af:0b:d0:ed:
                    0a:77:c1:f6:ff:f8:3d:df:7a:6e:e6:75:b6:a0:16:
                    27:12:5f:55:ae:d5:a9:c0:ad:ca:78:e0:e4:a4:71:
                    af:7c:8f:66:22:47:05:56:2e:e1:ce:ee:6a:f8:47:
                    71:d7:e4:c5:49:c7:19:57:b0:a5:bb:db:1a:61:c8:
                    3e:b8:04:86:b7:b2:04:df:a0:42:84:2a:85:69:af:
                    20:06:b2:f1:1c:73:1f:67:59:44:d2:71:81:66:4b:
                    59:6c:1f:30:e6:e2:7e:f4:ce:45:8b:b7:a6:02:75:
                    30:db:16:c8:49:09:32:bd:61:23:7c:b5:5e:7f:d4:
                    ef:96:90:d6:56:cd:d2:80:44:7c:7d:e7:a2:f8:4c:
                    09:23:f7:df:30:19:e1:0d:59:20:ec:4d:6a:f0:29:
                    10:96:98:0d:86:81:6d:11:1f:a0:c5:24:e3:f5:6a:
                    a2:84:3c:41:73:2a:82:0d:0b:10:31:23:7f:c3:38:
                    bd:22:d0:50:55:2f:46:c3:15:4b:cb:49:a0:af:87:
                    4c:53:b7:c3:9f:ab:86:02:7b:48:a4:95:fc:e4:05:
                    a5:7e:a0:1d:7f:4e:db:49:b4:99:31:1b:4b:35:92:
                    ef:f3:2b:5e:73:cc:8b:d2:81:6a:72:4e:c3:00:76:
                    f4:f4:d4:aa:fb:fe:24:1a:7f:6c:ff:c1:a7:d1:41:
                    7c:7a:ae:17:ec:93:37:b2:44:d3:e8:55:69:27:50:
                    00:ea:3b:6e:93:c0:65:05:41:71:b6:40:b4:e0:f3:
                    53:c9:0e:37:f5:92:c1:ab:8f:b7:cc:24:bb:19:62:
                    63:84:5c:ab:5f:2f:8a:ef:80:c9:f5:0c:9d:bf:0d:
                    3a:18:36:35:52:2d:94:2a:77:d6:ed:63:5f:60:47:
                    2c:2c:8f
                Exponent: 65537 (0x10001)
        X509v3 extensions:
            X509v3 Basic Constraints: 
                CA:FALSE
            Netscape Comment: 
                Easy-RSA Generated Certificate
            X509v3 Subject Key Identifier: 
                8E:DC:3B:55:81:CE:8A:CC:27:BD:8E:D3:1B:EE:5C:18:21:03:BD:1F
            X509v3 Authority Key Identifier: 
                keyid:77:FB:5E:F4:DC:54:1D:6D:60:7D:52:83:63:A3:C4:83:66:D8:9F:74
                DirName:/C=JP/ST=Chiba/L=Chiba/O=hkkim-openvpn/OU=pri-vpn/CN=maku-home/name=hkkim/emailAddress=mail@host.domain
                serial:42:EE:7C:78:40:35:95:B3:D2:FA:89:11:DF:2A:46:EE:01:48:5D:95

            X509v3 Extended Key Usage: 
                TLS Web Client Authentication
            X509v3 Key Usage: 
                Digital Signature
    Signature Algorithm: sha256WithRSAEncryption
         75:28:66:df:d1:c6:75:1a:aa:c0:38:74:77:39:3f:21:63:57:
         08:41:3d:6f:2f:e7:ae:12:4f:53:a6:9f:95:dd:85:d4:77:a6:
         12:fc:34:6b:eb:40:c9:47:92:ee:d3:0f:da:d8:24:4c:2b:71:
         e9:1f:2a:40:62:a1:47:a3:37:e2:c2:b2:18:ce:74:25:a9:7b:
         70:d4:62:b4:18:85:14:3d:c5:5a:a9:fd:6f:90:aa:1e:a8:9b:
         27:87:d4:d8:ce:8d:32:b4:51:e4:b7:2f:2e:10:2a:b8:72:bc:
         0e:b5:e9:d2:38:30:ce:db:0b:10:09:55:f7:d5:f8:32:ea:37:
         64:a0:ff:02:31:1b:d8:50:4e:8f:6f:9a:ad:72:a8:58:fa:89:
         57:da:1b:4d:c6:3e:45:52:0b:96:23:97:ba:64:d4:51:07:38:
         b7:39:c6:2f:00:41:05:c9:58:7b:b6:98:14:2c:e2:f1:77:dd:
         a6:b1:1f:4d:98:b6:b1:08:f2:85:df:79:5b:2a:ac:a7:91:03:
         29:71:ee:af:ab:e3:45:d3:e7:5d:3c:74:f2:f1:8e:d9:e0:22:
         15:b9:33:53:49:e7:95:53:53:1e:7c:03:a0:55:22:14:95:09:
         b2:97:34:19:5e:be:bc:bf:29:fa:44:e3:0b:67:98:d5:65:d6:
         c9:1c:cb:99:52:db:a6:4c:4a:ef:c1:b6:25:17:64:df:cb:a7:
         1c:25:dc:dd:d4:d9:b5:ad:6f:19:70:8b:e9:5b:98:7e:fc:db:
         fe:79:76:93:3d:d5:99:05:47:b5:5b:8a:26:67:7b:3e:9e:97:
         92:fd:13:cb:61:fb:3e:cb:be:59:3a:84:75:22:e9:56:8c:6f:
         30:81:7b:2e:a6:56:71:bc:7a:dd:95:39:bd:6a:0e:4b:22:93:
         b5:eb:20:a3:24:35:7b:e8:1e:9a:58:5b:6f:2f:27:ae:39:3e:
         70:b9:b9:d6:32:08:d4:c7:5a:d4:b4:e0:96:9a:2b:e1:b0:4b:
         ec:3a:46:32:90:3a:61:47:a3:b8:31:a8:26:4f:ce:04:5c:bd:
         c5:89:e2:19:25:45:a7:df:02:f6:f4:65:4e:de:4c:32:3d:87:
         67:1e:be:c7:20:57:f8:4e:f5:a7:a4:3d:71:00:ba:10:ce:ac:
         72:23:fa:e9:51:d4:e8:88:08:53:e9:4b:d8:ed:1d:ea:14:78:
         4a:13:bb:1d:f4:73:a2:5b:7e:14:8b:1a:43:73:d3:32:72:d3:
         41:56:06:df:e8:3d:86:18:eb:39:f7:0d:70:66:73:42:c4:95:
         1b:f0:2f:cf:7e:e7:14:aa:4a:0c:9a:a2:ac:e9:99:1a:fa:ba:
         e8:6a:f7:c4:86:ac:2b:cc
-----BEGIN CERTIFICATE-----
MIIHFzCCBP+gAwIBAgIBAjANBgkqhkiG9w0BAQsFADCBnDELMAkGA1UEBhMCSlAx
DjAMBgNVBAgTBUNoaWJhMQ4wDAYDVQQHEwVDaGliYTEWMBQGA1UEChMNaGtraW0t
b3BlbnZwbjEQMA4GA1UECxMHcHJpLXZwbjESMBAGA1UEAxMJbWFrdS1ob21lMQ4w
DAYDVQQpEwVoa2tpbTEfMB0GCSqGSIb3DQEJARYQbWFpbEBob3N0LmRvbWFpbjAe
Fw0yMTAxMjAxNzQ0MjJaFw0zMTAxMTgxNzQ0MjJaMIGeMQswCQYDVQQGEwJKUDEO
MAwGA1UECBMFQ2hpYmExDjAMBgNVBAcTBUNoaWJhMRYwFAYDVQQKEw1oa2tpbS1v
cGVudnBuMRQwEgYDVQQLEwtwcmktb3BlbnZwbjEPMA0GA1UEAxMGYnVzYW4xMQ8w
DQYDVQQpEwZidXNhbjExHzAdBgkqhkiG9w0BCQEWEG1haWxAaG9zdC5kb21haW4w
ggIiMA0GCSqGSIb3DQEBAQUAA4ICDwAwggIKAoICAQDy7s6j8AWrAH3jv6Ku8Rxa
5wV5nqPHyrlcGgX8jZTRIvvE4ETC+1R1s54+UBUo+JdmDMs8yiLQ2K9KVlhpki+T
KyW5iOkZ8DW6aTrMRjwjfzgyEH8nNLVctSfSFjxKLH8ilbK8ZXEOwm78A9RxPbBR
jIlw0cpU4V8Vko7tUKmfMAqSKQ1rNc3coi3qtjQtvAv/cbAVtecO2DioVwhisSk/
dFjmUMN5hn+8cAXpbrn/rwvQ7Qp3wfb/+D3fem7mdbagFicSX1Wu1anArcp44OSk
ca98j2YiRwVWLuHO7mr4R3HX5MVJxxlXsKW72xphyD64BIa3sgTfoEKEKoVpryAG
svEccx9nWUTScYFmS1lsHzDm4n70zkWLt6YCdTDbFshJCTK9YSN8tV5/1O+WkNZW
zdKARHx956L4TAkj998wGeENWSDsTWrwKRCWmA2GgW0RH6DFJOP1aqKEPEFzKoIN
CxAxI3/DOL0i0FBVL0bDFUvLSaCvh0xTt8Ofq4YCe0iklfzkBaV+oB1/TttJtJkx
G0s1ku/zK15zzIvSgWpyTsMAdvT01Kr7/iQaf2z/wafRQXx6rhfskzeyRNPoVWkn
UADqO26TwGUFQXG2QLTg81PJDjf1ksGrj7fMJLsZYmOEXKtfL4rvgMn1DJ2/DToY
NjVSLZQqd9btY19gRywsjwIDAQABo4IBXjCCAVowCQYDVR0TBAIwADAtBglghkgB
hvhCAQ0EIBYeRWFzeS1SU0EgR2VuZXJhdGVkIENlcnRpZmljYXRlMB0GA1UdDgQW
BBSO3DtVgc6KzCe9jtMb7lwYIQO9HzCB3AYDVR0jBIHUMIHRgBR3+1703FQdbWB9
UoNjo8SDZtifdKGBoqSBnzCBnDELMAkGA1UEBhMCSlAxDjAMBgNVBAgTBUNoaWJh
MQ4wDAYDVQQHEwVDaGliYTEWMBQGA1UEChMNaGtraW0tb3BlbnZwbjEQMA4GA1UE
CxMHcHJpLXZwbjESMBAGA1UEAxMJbWFrdS1ob21lMQ4wDAYDVQQpEwVoa2tpbTEf
MB0GCSqGSIb3DQEJARYQbWFpbEBob3N0LmRvbWFpboIUQu58eEA1lbPS+okR3ypG
7gFIXZUwEwYDVR0lBAwwCgYIKwYBBQUHAwIwCwYDVR0PBAQDAgeAMA0GCSqGSIb3
DQEBCwUAA4ICAQB1KGbf0cZ1GqrAOHR3OT8hY1cIQT1vL+euEk9Tpp+V3YXUd6YS
/DRr60DJR5Lu0w/a2CRMK3HpHypAYqFHozfiwrIYznQlqXtw1GK0GIUUPcVaqf1v
kKoeqJsnh9TYzo0ytFHkty8uECq4crwOtenSODDO2wsQCVX31fgy6jdkoP8CMRvY
UE6Pb5qtcqhY+olX2htNxj5FUguWI5e6ZNRRBzi3OcYvAEEFyVh7tpgULOLxd92m
sR9NmLaxCPKF33lbKqynkQMpce6vq+NF0+ddPHTy8Y7Z4CIVuTNTSeeVU1MefAOg
VSIUlQmylzQZXr68vyn6ROMLZ5jVZdbJHMuZUtumTErvwbYlF2Tfy6ccJdzd1Nm1
rW8ZcIvpW5h+/Nv+eXaTPdWZBUe1W4omZ3s+npeS/RPLYfs+y75ZOoR1IulWjG8w
gXsuplZxvHrdlTm9ag5LIpO16yCjJDV76B6aWFtvLyeuOT5wubnWMgjUx1rUtOCW
mivhsEvsOkYykDphR6O4MagmT84EXL3FieIZJUWn3wL29GVO3kwyPYdnHr7HIFf4
TvWnpD1xALoQzqxyI/rpUdToiAhT6UvY7R3qFHhKE7sd9HOiW34UixpDc9MyctNB
Vgbf6D2GGOs59w1wZnNCxJUb8C/PfucUqkoMmqKs6Zka+rroavfEhqwrzA==
-----END CERTIFICATE-----
